; Function Attrs: mustprogress uwtable
define internal void @_ZN12_GLOBAL__N_136PoolURBGTypedTest_URBGInterface_TestIN4absl15random_internal8PoolURBGIjLm2EEEE8TestBodyEv(ptr nocapture nonnull readnone align 8 %this) unnamed_addr #3 align 2 {
_ZN4absl15random_internal8PoolURBGIjLm2EEclEv.exit16:
  %e = alloca %"class.absl::random_internal::PoolURBG.33", align 8
  %u0 = alloca %"class.absl::random_internal::PoolURBG.33", align 8
  %u1 = alloca %"class.absl::random_internal::PoolURBG.33", align 8
  store i64 0, ptr %e, align 8
  %state_.i = getelementptr inbounds i8, ptr %e, i64 8
  call void @_ZN4absl15random_internal10RandenPoolIjE4FillENS_4SpanIjEE(ptr nonnull %state_.i, i64 2)
  %.pre.i = load i64, ptr %e, align 8
  %inc.i = add i64 %.pre.i, 1
  store i64 %inc.i, ptr %e, align 8
  store i64 0, ptr %u0, align 8
  %state_.i6 = getelementptr inbounds i8, ptr %u0, i64 8
  call void @_ZN4absl15random_internal10RandenPoolIjE4FillENS_4SpanIjEE(ptr nonnull %state_.i6, i64 2)
  %.pre.i7 = load i64, ptr %u0, align 8
  %inc.i3 = add i64 %.pre.i7, 1
  store i64 %inc.i3, ptr %u0, align 8
  store i64 0, ptr %u1, align 8
  %state_.i14 = getelementptr inbounds i8, ptr %u1, i64 8
  call void @_ZN4absl15random_internal10RandenPoolIjE4FillENS_4SpanIjEE(ptr nonnull %state_.i14, i64 2)
  ret void
}